; Function Attrs: null_pointer_is_valid sspstrong uwtable
define internal fastcc i32 @reply_enumerate(ptr noundef %0, ptr noundef readonly captures(none) %1, ptr noundef %2, i32 noundef range(i32 0, 2) %3) unnamed_addr #1 {
  %5 = load i32, ptr @hf_afp_file_bitmap, align 4
  %6 = load i32, ptr @ett_afp_file_bitmap, align 4
  %7 = tail call ptr @proto_tree_add_bitmask(ptr noundef %2, ptr noundef %0, i32 noundef 0, i32 noundef %5, i32 noundef %6, ptr noundef nonnull @decode_file_bitmap.bitmaps, i32 noundef 0)
  %8 = tail call zeroext i16 @tvb_get_ntohs(ptr noundef %0, i32 noundef 0)
  %9 = load i32, ptr @hf_afp_dir_bitmap, align 4
  %10 = load i32, ptr @ett_afp_dir_bitmap, align 4
  %11 = tail call ptr @proto_tree_add_bitmask(ptr noundef %2, ptr noundef %0, i32 noundef 2, i32 noundef %9, i32 noundef %10, ptr noundef nonnull @decode_dir_bitmap.bitmaps, i32 noundef 0)
  %12 = tail call zeroext i16 @tvb_get_ntohs(ptr noundef %0, i32 noundef 2)
  %13 = tail call zeroext i16 @tvb_get_ntohs(ptr noundef %0, i32 noundef 4)
  %.not = icmp eq ptr %2, null
  br i1 %.not, label %19, label %14

14:                                               ; preds = %4
  %15 = load i32, ptr @hf_afp_req_count, align 4
  %16 = tail call ptr @proto_tree_add_item(ptr noundef nonnull %2, i32 noundef %15, ptr noundef %0, i32 noundef 4, i32 noundef 2, i32 noundef 0)
  %17 = load i32, ptr @ett_afp_enumerate, align 4
  %18 = tail call ptr @proto_item_add_subtree(ptr noundef %16, i32 noundef %17)
  br label %19

19:                                               ; preds = %14, %4
  %.0 = phi ptr [ %18, %14 ], [ null, %4 ]
  %20 = zext i16 %13 to i32
  %21 = tail call fastcc i32 @loop_record(ptr noundef %0, ptr noundef %1, ptr noundef %.0, i32 noundef 6, i32 noundef %20, i16 noundef zeroext %12, i16 noundef zeroext %8, i32 noundef 0, i32 noundef %3)
  ret i32 %21
}